; Function Attrs: mustprogress nounwind uwtable
define void @_ZN10MainHeader5ResetEv(ptr noundef nonnull align 8 dereferenceable(112) initializes((0, 72)) %0) local_unnamed_addr #3 align 2 personality ptr @__gxx_personality_v0 {
  %2 = alloca %struct.MainHeader, align 8
  call void @llvm.memset.p0.i64(ptr noundef nonnull align 8 dereferenceable(112) %2, i8 0, i64 112, i1 false)
  %3 = getelementptr inbounds nuw i8, ptr %2, i64 72
  call void @_ZNSt7__cxx1112basic_stringIwSt11char_traitsIwESaIwEEC1Ev(ptr noundef nonnull align 8 dereferenceable(32) %3) #10
  %4 = getelementptr inbounds nuw i8, ptr %2, i64 104
  store i64 0, ptr %4, align 8
  call void @llvm.memcpy.p0.p0.i64(ptr noundef nonnull align 8 dereferenceable(112) %0, ptr noundef nonnull align 8 dereferenceable(112) %2, i64 20, i1 false)
  %5 = getelementptr inbounds nuw i8, ptr %0, i64 20
  %6 = getelementptr inbounds nuw i8, ptr %2, i64 20
  call void @llvm.memcpy.p0.p0.i64(ptr noundef nonnull align 4 dereferenceable(52) %5, ptr noundef nonnull align 4 dereferenceable(52) %6, i64 52, i1 false)
  %7 = getelementptr inbounds nuw i8, ptr %0, i64 72
  %8 = call noundef nonnull align 8 dereferenceable(32) ptr @_ZNSt7__cxx1112basic_stringIwSt11char_traitsIwESaIwEEaSEOS4_(ptr noundef nonnull align 8 dereferenceable(32) %7, ptr noundef nonnull align 8 dereferenceable(32) %3) #10
  %9 = getelementptr inbounds nuw i8, ptr %0, i64 104
  %10 = load i64, ptr %4, align 8
  store i64 %10, ptr %9, align 8
  call void @_ZNSt7__cxx1112basic_stringIwSt11char_traitsIwESaIwEED1Ev(ptr noundef nonnull align 8 dereferenceable(32) %3) #10
  ret void
}